target datalayout = "e-m:e-p270:32:32-p271:32:32-p272:64:64-i64:64-i128:128-f80:128-n8:16:32:64-S128"
target triple = "x86_64-pc-linux-gnu"

; Function Attrs: nounwind ssp uwtable
define dso_local i32 @crypto_aead_chacha20poly1305_ietf_encrypt(ptr noundef nonnull %0, ptr noundef %1, ptr noundef %2, i64 noundef %3, ptr noundef %4, i64 noundef %5, ptr noundef %6, ptr noundef nonnull %7, ptr noundef nonnull %8) #0 {
  %10 = alloca ptr, align 8
  %11 = alloca ptr, align 8
  %12 = alloca ptr, align 8
  %13 = alloca i64, align 8
  %14 = alloca ptr, align 8
  %15 = alloca i64, align 8
  %16 = alloca ptr, align 8
  %17 = alloca ptr, align 8
  %18 = alloca ptr, align 8
  %19 = alloca i64, align 8
  %20 = alloca i32, align 4
  store ptr %0, ptr %10, align 8
  store ptr %1, ptr %11, align 8
  store ptr %2, ptr %12, align 8
  store i64 %3, ptr %13, align 8
  store ptr %4, ptr %14, align 8
  store i64 %5, ptr %15, align 8
  store ptr %6, ptr %16, align 8
  store ptr %7, ptr %17, align 8
  store ptr %8, ptr %18, align 8
  call void @llvm.lifetime.start.p0(i64 8, ptr %19) #8
  store i64 0, ptr %19, align 8
  call void @llvm.lifetime.start.p0(i64 4, ptr %20) #8
  %21 = load i64, ptr %13, align 8
  %22 = icmp ugt i64 %21, 274877906880
  br i1 %22, label %23, label %24

23:                                               ; preds = %9
  call void @sodium_misuse() #9
  unreachable

24:                                               ; preds = %9
  %25 = load ptr, ptr %10, align 8
  %26 = load ptr, ptr %10, align 8
  %27 = load i64, ptr %13, align 8
  %28 = getelementptr i8, ptr %26, i64 %27
  %29 = load ptr, ptr %12, align 8
  %30 = load i64, ptr %13, align 8
  %31 = load ptr, ptr %14, align 8
  %32 = load i64, ptr %15, align 8
  %33 = load ptr, ptr %16, align 8
  %34 = load ptr, ptr %17, align 8
  %35 = load ptr, ptr %18, align 8
  %36 = call i32 @crypto_aead_chacha20poly1305_ietf_encrypt_detached(ptr noundef %25, ptr noundef %28, ptr noundef null, ptr noundef %29, i64 noundef %30, ptr noundef %31, i64 noundef %32, ptr noundef %33, ptr noundef %34, ptr noundef %35)
  store i32 %36, ptr %20, align 4
  %37 = load ptr, ptr %11, align 8
  %38 = icmp ne ptr %37, null
  br i1 %38, label %39, label %48

39:                                               ; preds = %24
  %40 = load i32, ptr %20, align 4
  %41 = icmp eq i32 %40, 0
  br i1 %41, label %42, label %45

42:                                               ; preds = %39
  %43 = load i64, ptr %13, align 8
  %44 = add i64 %43, 16
  store i64 %44, ptr %19, align 8
  br label %45

45:                                               ; preds = %42, %39
  %46 = load i64, ptr %19, align 8
  %47 = load ptr, ptr %11, align 8
  store i64 %46, ptr %47, align 8
  br label %48

48:                                               ; preds = %45, %24
  %49 = load i32, ptr %20, align 4
  call void @llvm.lifetime.end.p0(i64 4, ptr %20) #8
  call void @llvm.lifetime.end.p0(i64 8, ptr %19) #8
  ret i32 %49
}